target datalayout = "e-m:e-p270:32:32-p271:32:32-p272:64:64-i64:64-i128:128-f80:128-n8:16:32:64-S128"
target triple = "x86_64-pc-linux-gnu"

%struct.TextureDSPContext = type { ptr, ptr, ptr, ptr, ptr, ptr, ptr, ptr, ptr, ptr, ptr, ptr, ptr, ptr, ptr }

; Function Attrs: cold nounwind optsize uwtable
define void @ff_texturedsp_init(ptr noundef %0) #0 {
  %2 = alloca ptr, align 8
  store ptr %0, ptr %2, align 8, !tbaa !4
  %3 = load ptr, ptr %2, align 8, !tbaa !4
  %4 = getelementptr inbounds nuw %struct.TextureDSPContext, ptr %3, i32 0, i32 0
  store ptr @dxt1_block, ptr %4, align 8, !tbaa !9
  %5 = load ptr, ptr %2, align 8, !tbaa !4
  %6 = getelementptr inbounds nuw %struct.TextureDSPContext, ptr %5, i32 0, i32 1
  store ptr @dxt1a_block, ptr %6, align 8, !tbaa !11
  %7 = load ptr, ptr %2, align 8, !tbaa !4
  %8 = getelementptr inbounds nuw %struct.TextureDSPContext, ptr %7, i32 0, i32 2
  store ptr @dxt2_block, ptr %8, align 8, !tbaa !12
  %9 = load ptr, ptr %2, align 8, !tbaa !4
  %10 = getelementptr inbounds nuw %struct.TextureDSPContext, ptr %9, i32 0, i32 3
  store ptr @dxt3_block, ptr %10, align 8, !tbaa !13
  %11 = load ptr, ptr %2, align 8, !tbaa !4
  %12 = getelementptr inbounds nuw %struct.TextureDSPContext, ptr %11, i32 0, i32 4
  store ptr @dxt4_block, ptr %12, align 8, !tbaa !14
  %13 = load ptr, ptr %2, align 8, !tbaa !4
  %14 = getelementptr inbounds nuw %struct.TextureDSPContext, ptr %13, i32 0, i32 5
  store ptr @dxt5_block, ptr %14, align 8, !tbaa !15
  %15 = load ptr, ptr %2, align 8, !tbaa !4
  %16 = getelementptr inbounds nuw %struct.TextureDSPContext, ptr %15, i32 0, i32 6
  store ptr @dxt5y_block, ptr %16, align 8, !tbaa !16
  %17 = load ptr, ptr %2, align 8, !tbaa !4
  %18 = getelementptr inbounds nuw %struct.TextureDSPContext, ptr %17, i32 0, i32 7
  store ptr @dxt5ys_block, ptr %18, align 8, !tbaa !17
  %19 = load ptr, ptr %2, align 8, !tbaa !4
  %20 = getelementptr inbounds nuw %struct.TextureDSPContext, ptr %19, i32 0, i32 8
  store ptr @rgtc1s_block, ptr %20, align 8, !tbaa !18
  %21 = load ptr, ptr %2, align 8, !tbaa !4
  %22 = getelementptr inbounds nuw %struct.TextureDSPContext, ptr %21, i32 0, i32 9
  store ptr @rgtc1u_block, ptr %22, align 8, !tbaa !19
  %23 = load ptr, ptr %2, align 8, !tbaa !4
  %24 = getelementptr inbounds nuw %struct.TextureDSPContext, ptr %23, i32 0, i32 10
  store ptr @rgtc1u_gray_block, ptr %24, align 8, !tbaa !20
  %25 = load ptr, ptr %2, align 8, !tbaa !4
  %26 = getelementptr inbounds nuw %struct.TextureDSPContext, ptr %25, i32 0, i32 11
  store ptr @rgtc1u_alpha_block, ptr %26, align 8, !tbaa !21
  %27 = load ptr, ptr %2, align 8, !tbaa !4
  %28 = getelementptr inbounds nuw %struct.TextureDSPContext, ptr %27, i32 0, i32 12
  store ptr @rgtc2s_block, ptr %28, align 8, !tbaa !22
  %29 = load ptr, ptr %2, align 8, !tbaa !4
  %30 = getelementptr inbounds nuw %struct.TextureDSPContext, ptr %29, i32 0, i32 13
  store ptr @rgtc2u_block, ptr %30, align 8, !tbaa !23
  %31 = load ptr, ptr %2, align 8, !tbaa !4
  %32 = getelementptr inbounds nuw %struct.TextureDSPContext, ptr %31, i32 0, i32 14
  store ptr @dxn3dc_block, ptr %32, align 8, !tbaa !24
  ret void
}