; Function Attrs: cold mustprogress nofree norecurse nosync nounwind optsize willreturn memory(argmem: write) uwtable
define void @ff_texturedsp_init(ptr noundef writeonly captures(none) initializes((0, 120)) %0) local_unnamed_addr #0 {
  store ptr @dxt1_block, ptr %0, align 8, !tbaa !4
  %2 = getelementptr inbounds nuw i8, ptr %0, i64 8
  store ptr @dxt1a_block, ptr %2, align 8, !tbaa !9
  %3 = getelementptr inbounds nuw i8, ptr %0, i64 16
  store ptr @dxt2_block, ptr %3, align 8, !tbaa !10
  %4 = getelementptr inbounds nuw i8, ptr %0, i64 24
  store ptr @dxt3_block, ptr %4, align 8, !tbaa !11
  %5 = getelementptr inbounds nuw i8, ptr %0, i64 32
  store ptr @dxt4_block, ptr %5, align 8, !tbaa !12
  %6 = getelementptr inbounds nuw i8, ptr %0, i64 40
  store ptr @dxt5_block, ptr %6, align 8, !tbaa !13
  %7 = getelementptr inbounds nuw i8, ptr %0, i64 48
  store ptr @dxt5y_block, ptr %7, align 8, !tbaa !14
  %8 = getelementptr inbounds nuw i8, ptr %0, i64 56
  store ptr @dxt5ys_block, ptr %8, align 8, !tbaa !15
  %9 = getelementptr inbounds nuw i8, ptr %0, i64 64
  store ptr @rgtc1s_block, ptr %9, align 8, !tbaa !16
  %10 = getelementptr inbounds nuw i8, ptr %0, i64 72
  store ptr @rgtc1u_block, ptr %10, align 8, !tbaa !17
  %11 = getelementptr inbounds nuw i8, ptr %0, i64 80
  store ptr @rgtc1u_gray_block, ptr %11, align 8, !tbaa !18
  %12 = getelementptr inbounds nuw i8, ptr %0, i64 88
  store ptr @rgtc1u_alpha_block, ptr %12, align 8, !tbaa !19
  %13 = getelementptr inbounds nuw i8, ptr %0, i64 96
  store ptr @rgtc2s_block, ptr %13, align 8, !tbaa !20
  %14 = getelementptr inbounds nuw i8, ptr %0, i64 104
  store ptr @rgtc2u_block, ptr %14, align 8, !tbaa !21
  %15 = getelementptr inbounds nuw i8, ptr %0, i64 112
  store ptr @dxn3dc_block, ptr %15, align 8, !tbaa !22
  ret void
}